target datalayout = "e-m:e-p270:32:32-p271:32:32-p272:64:64-i64:64-i128:128-f80:128-n8:16:32:64-S128"
target triple = "x86_64-pc-linux-gnu"

%"struct.faiss::IndexBinary" = type { ptr, i32, i32, i64, i8, i8, i32 }
%"struct.faiss::IndexBinaryMultiHash" = type <{ %"struct.faiss::IndexBinary", ptr, i8, [7 x i8], %"class.std::vector.33", i32, i32, i32, [4 x i8] }>
%"class.std::vector.33" = type { %"struct.std::_Vector_base.34" }
%"struct.std::_Vector_base.34" = type { %"struct.std::_Vector_base<std::unordered_map<long, std::vector<long>>, std::allocator<std::unordered_map<long, std::vector<long>>>>::_Vector_impl" }
%"struct.std::_Vector_base<std::unordered_map<long, std::vector<long>>, std::allocator<std::unordered_map<long, std::vector<long>>>>::_Vector_impl" = type { %"struct.std::_Vector_base<std::unordered_map<long, std::vector<long>>, std::allocator<std::unordered_map<long, std::vector<long>>>>::_Vector_impl_data" }
%"struct.std::_Vector_base<std::unordered_map<long, std::vector<long>>, std::allocator<std::unordered_map<long, std::vector<long>>>>::_Vector_impl_data" = type { ptr, ptr, ptr }

; Function Attrs: mustprogress nounwind uwtable
define linkonce_odr void @_ZNSt15__new_allocatorISt13unordered_mapIlSt6vectorIlSaIlEESt4hashIlESt8equal_toIlESaISt4pairIKlS3_EEEEC2Ev(ptr noundef nonnull align 1 dereferenceable(1) %0) unnamed_addr #0 comdat align 2 {
  %2 = alloca ptr, align 8
  store ptr %0, ptr %2, align 8
  ret void
}

; Function Attrs: mustprogress nounwind uwtable
define linkonce_odr void @_ZNSt12_Vector_baseISt13unordered_mapIlSt6vectorIlSaIlEESt4hashIlESt8equal_toIlESaISt4pairIKlS3_EEESaISC_EE17_Vector_impl_dataC2Ev(ptr noundef nonnull align 8 dereferenceable(24) %0) unnamed_addr #0 comdat align 2 {
  %2 = alloca ptr, align 8
  store ptr %0, ptr %2, align 8
  %3 = load ptr, ptr %2, align 8
  %4 = getelementptr inbounds %"struct.std::_Vector_base<std::unordered_map<long, std::vector<long>>, std::allocator<std::unordered_map<long, std::vector<long>>>>::_Vector_impl_data", ptr %3, i32 0, i32 0
  store ptr null, ptr %4, align 8
  %5 = getelementptr inbounds %"struct.std::_Vector_base<std::unordered_map<long, std::vector<long>>, std::allocator<std::unordered_map<long, std::vector<long>>>>::_Vector_impl_data", ptr %3, i32 0, i32 1
  store ptr null, ptr %5, align 8
  %6 = getelementptr inbounds %"struct.std::_Vector_base<std::unordered_map<long, std::vector<long>>, std::allocator<std::unordered_map<long, std::vector<long>>>>::_Vector_impl_data", ptr %3, i32 0, i32 2
  store ptr null, ptr %6, align 8
  ret void
}

; Function Attrs: mustprogress nounwind uwtable
define linkonce_odr void @_ZNSaISt13unordered_mapIlSt6vectorIlSaIlEESt4hashIlESt8equal_toIlESaISt4pairIKlS2_EEEEC2Ev(ptr noundef nonnull align 1 dereferenceable(1) %0) unnamed_addr #0 comdat align 2 {
  %2 = alloca ptr, align 8
  store ptr %0, ptr %2, align 8
  %3 = load ptr, ptr %2, align 8
  call void @_ZNSt15__new_allocatorISt13unordered_mapIlSt6vectorIlSaIlEESt4hashIlESt8equal_toIlESaISt4pairIKlS3_EEEEC2Ev(ptr noundef nonnull align 1 dereferenceable(1) %3) #13
  ret void
}

; Function Attrs: mustprogress nounwind uwtable
define linkonce_odr void @_ZNSt12_Vector_baseISt13unordered_mapIlSt6vectorIlSaIlEESt4hashIlESt8equal_toIlESaISt4pairIKlS3_EEESaISC_EE12_Vector_implC2Ev(ptr noundef nonnull align 8 dereferenceable(24) %0) unnamed_addr #0 comdat align 2 {
  %2 = alloca ptr, align 8
  store ptr %0, ptr %2, align 8
  %3 = load ptr, ptr %2, align 8
  call void @_ZNSaISt13unordered_mapIlSt6vectorIlSaIlEESt4hashIlESt8equal_toIlESaISt4pairIKlS2_EEEEC2Ev(ptr noundef nonnull align 1 dereferenceable(1) %3) #13
  call void @_ZNSt12_Vector_baseISt13unordered_mapIlSt6vectorIlSaIlEESt4hashIlESt8equal_toIlESaISt4pairIKlS3_EEESaISC_EE17_Vector_impl_dataC2Ev(ptr noundef nonnull align 8 dereferenceable(24) %3) #13
  ret void
}

; Function Attrs: mustprogress nounwind uwtable
define linkonce_odr void @_ZNSt12_Vector_baseISt13unordered_mapIlSt6vectorIlSaIlEESt4hashIlESt8equal_toIlESaISt4pairIKlS3_EEESaISC_EEC2Ev(ptr noundef nonnull align 8 dereferenceable(24) %0) unnamed_addr #0 comdat align 2 {
  %2 = alloca ptr, align 8
  store ptr %0, ptr %2, align 8
  %3 = load ptr, ptr %2, align 8
  %4 = getelementptr inbounds %"struct.std::_Vector_base.34", ptr %3, i32 0, i32 0
  call void @_ZNSt12_Vector_baseISt13unordered_mapIlSt6vectorIlSaIlEESt4hashIlESt8equal_toIlESaISt4pairIKlS3_EEESaISC_EE12_Vector_implC2Ev(ptr noundef nonnull align 8 dereferenceable(24) %4) #13
  ret void
}

; Function Attrs: mustprogress nounwind uwtable
define linkonce_odr void @_ZNSt6vectorISt13unordered_mapIlS_IlSaIlEESt4hashIlESt8equal_toIlESaISt4pairIKlS2_EEESaISB_EEC2Ev(ptr noundef nonnull align 8 dereferenceable(24) %0) unnamed_addr #0 comdat align 2 {
  %2 = alloca ptr, align 8
  store ptr %0, ptr %2, align 8
  %3 = load ptr, ptr %2, align 8
  call void @_ZNSt12_Vector_baseISt13unordered_mapIlSt6vectorIlSaIlEESt4hashIlESt8equal_toIlESaISt4pairIKlS3_EEESaISC_EEC2Ev(ptr noundef nonnull align 8 dereferenceable(24) %3) #13
  ret void
}

; Function Attrs: mustprogress uwtable
define void @_ZN5faiss20IndexBinaryMultiHashC2Ev(ptr noundef nonnull align 8 dereferenceable(84) %0) unnamed_addr #2 align 2 {
  %2 = alloca ptr, align 8
  store ptr %0, ptr %2, align 8
  %3 = load ptr, ptr %2, align 8
  call void @_ZN5faiss11IndexBinaryC2ElNS_10MetricTypeE(ptr noundef nonnull align 8 dereferenceable(32) %3, i64 noundef 0, i32 noundef 1)
  store ptr getelementptr inbounds ({ [16 x ptr] }, ptr @_ZTVN5faiss20IndexBinaryMultiHashE, i32 0, i32 0, i32 2), ptr %3, align 8
  %4 = getelementptr inbounds %"struct.faiss::IndexBinaryMultiHash", ptr %3, i32 0, i32 1
  store ptr null, ptr %4, align 8
  %5 = getelementptr inbounds %"struct.faiss::IndexBinaryMultiHash", ptr %3, i32 0, i32 2
  store i8 1, ptr %5, align 8
  %6 = getelementptr inbounds %"struct.faiss::IndexBinaryMultiHash", ptr %3, i32 0, i32 4
  call void @_ZNSt6vectorISt13unordered_mapIlS_IlSaIlEESt4hashIlESt8equal_toIlESaISt4pairIKlS2_EEESaISB_EEC2Ev(ptr noundef nonnull align 8 dereferenceable(24) %6) #13
  %7 = getelementptr inbounds %"struct.faiss::IndexBinaryMultiHash", ptr %3, i32 0, i32 5
  store i32 0, ptr %7, align 8
  %8 = getelementptr inbounds %"struct.faiss::IndexBinaryMultiHash", ptr %3, i32 0, i32 6
  store i32 0, ptr %8, align 4
  %9 = getelementptr inbounds %"struct.faiss::IndexBinaryMultiHash", ptr %3, i32 0, i32 7
  store i32 0, ptr %9, align 8
  ret void
}