; Function Attrs: mustprogress uwtable
define void @_ZN5faiss20IndexBinaryMultiHashC2Ev(ptr noundef nonnull align 8 dereferenceable(84) %0) unnamed_addr #2 align 2 {
  tail call void @_ZN5faiss11IndexBinaryC2ElNS_10MetricTypeE(ptr noundef nonnull align 8 dereferenceable(32) %0, i64 noundef 0, i32 noundef 1)
  store ptr getelementptr inbounds ({ [16 x ptr] }, ptr @_ZTVN5faiss20IndexBinaryMultiHashE, i64 0, i32 0, i64 2), ptr %0, align 8
  %2 = getelementptr inbounds i8, ptr %0, i64 32
  store ptr null, ptr %2, align 8
  %3 = getelementptr inbounds i8, ptr %0, i64 40
  store i8 1, ptr %3, align 8
  %4 = getelementptr inbounds i8, ptr %0, i64 48
  tail call void @llvm.memset.p0.i64(ptr noundef nonnull align 8 dereferenceable(36) %4, i8 0, i64 36, i1 false)
  ret void
}